(dp0
S'METTS MARK'
p1
(dp2
S'expenses'
p3
I94299
sS'poi'
p4
I00
sS'long_term_incentive'
p5
I0
sS'fraction_from_poi'
p6
F0.04708798017348203
sS'bonus'
p7
I600000
sS'total_stock_value'
p8
I585062
sS'restricted_stock'
p9
I585062
sS'salary'
p10
I365788
sS'total_payments'
p11
I1061827
sS'fraction_to_poi'
p12
F0.034482758620689655
sS'exercised_stock_options'
p13
I0
ssS'BAXTER JOHN C'
p14
(dp15
g3
I11200
sg4
I00
sg5
I1586055
sg6
F0.0
sg7
I1200000
sg8
I10623258
sg9
I3942714
sg10
I267102
sg11
I5634343
sg12
F0.0
sg13
I6680544
ssS'ELLIOTT STEVEN'
p16
(dp17
g3
I78552
sg4
I00
sg5
I0
sg6
F0.0
sg7
I350000
sg8
I6678735
sg9
I1788391
sg10
I170941
sg11
I211725
sg12
F0.0
sg13
I4890344
ssS'CORDES WILLIAM R'
p18
(dp19
g3
I0
sg4
I00
sg5
I0
sg6
F0.013089005235602094
sg7
I0
sg8
I1038185
sg9
I386335
sg10
I0
sg11
I0
sg12
F0.0
sg13
I651850
ssS'HANNON KEVIN P'
p20
(dp21
g3
I34039
sg4
I01
sg5
I1617011
sg6
F0.03062200956937799
sg7
I1500000
sg8
I6391065
sg9
I853064
sg10
I243293
sg11
I288682
sg12
F0.65625
sg13
I5538001
ssS'MORDAUNT KRISTINA M'
p22
(dp23
g3
I35018
sg4
I00
sg5
I0
sg6
F0.0
sg7
I325000
sg8
I208510
sg9
I208510
sg10
I267093
sg11
I628522
sg12
F0.0
sg13
I0
ssS'MEYER ROCKFORD G'
p24
(dp25
g3
I0
sg4
I00
sg5
I0
sg6
F0.0
sg7
I0
sg8
I955873
sg9
I462384
sg10
I0
sg11
I1848227
sg12
F0.0
sg13
I493489
ssS'MCMAHON JEFFREY'
p26
(dp27
g3
I137108
sg4
I00
sg5
I694862
sg6
F0.024628450106157114
sg7
I2600000
sg8
I1662855
sg9
I558801
sg10
I370448
sg11
I4099771
sg12
F0.5416666666666666
sg13
I1104054
ssS'HORTON STANLEY C'
p28
(dp29
g3
I0
sg4
I00
sg5
I0
sg6
F0.01872340425531915
sg7
I0
sg8
I7256648
sg9
I2046079
sg10
I0
sg11
I3131860
sg12
F0.013979496738117428
sg13
I5210569
ssS'PIPER GREGORY F'
p30
(dp31
g3
I43057
sg4
I00
sg5
I0
sg6
F0.049273021001615507
sg7
I400000
sg8
I880290
sg9
I409554
sg10
I197091
sg11
I1737629
sg12
F0.21621621621621623
sg13
I880290
ssS'HUMPHREY GENE E'
p32
(dp33
g3
I4994
sg4
I00
sg5
I0
sg6
F0.078125
sg7
I0
sg8
I2282768
sg9
I0
sg10
I130724
sg11
I3100224
sg12
F1.0
sg13
I2282768
ssS'UMANOFF ADAM S'
p34
(dp35
g3
I53122
sg4
I00
sg5
I0
sg6
F0.10810810810810811
sg7
I788750
sg8
I0
sg9
I0
sg10
I288589
sg11
I1130461
sg12
F0.0
sg13
I0
ssS'BLACHMAN JEREMY M'
p36
(dp37
g3
I84208
sg4
I00
sg5
I831809
sg6
F0.010101010101010102
sg7
I850000
sg8
I954354
sg9
I189041
sg10
I248546
sg11
I2014835
sg12
F0.14285714285714285
sg13
I765313
ssS'SUNDE MARTIN'
p38
(dp39
g3
I0
sg4
I00
sg5
I476451
sg6
F0.013978088401964487
sg7
I700000
sg8
I698920
sg9
I698920
sg10
I257486
sg11
I1545059
sg12
F0.34210526315789475
sg13
I0
ssS'GIBBS DANA R'
p40
(dp41
g3
I0
sg4
I00
sg5
I461912
sg6
F0.0
sg7
I0
sg8
I2218275
sg9
I0
sg10
I0
sg11
I966522
sg12
F0.0
sg13
I2218275
ssS'LOWRY CHARLES P'
p42
(dp43
g3
I0
sg4
I00
sg5
I0
sg6
F0.0
sg7
I0
sg8
I372205
sg9
I153686
sg10
I0
sg11
I0
sg12
F0.0
sg13
I372205
ssS'COLWELL WESLEY'
p44
(dp45
g3
I16514
sg4
I01
sg5
I0
sg6
F0.13651877133105803
sg7
I1200000
sg8
I698242
sg9
I698242
sg10
I288542
sg11
I1490344
sg12
F0.275
sg13
I0
ssS'MULLER MARK S'
p46
(dp47
g3
I0
sg4
I00
sg5
I1725545
sg6
F0.08823529411764706
sg7
I1100000
sg8
I1416848
sg9
I360528
sg10
I251654
sg11
I3202070
sg12
F0.0
sg13
I1056320
ssS'JACKSON CHARLENE R'
p48
(dp49
g3
I10181
sg4
I00
sg5
I0
sg6
F0.09689922480620156
sg7
I250000
sg8
I725735
sg9
I540672
sg10
I288558
sg11
I551174
sg12
F0.3392857142857143
sg13
I185063
ssS'WESTFAHL RICHARD K'
p50
(dp51
g3
I51870
sg4
I00
sg5
I256191
sg6
F0.0
sg7
I0
sg8
I384930
sg9
I384930
sg10
I63744
sg11
I762135
sg12
F0.0
sg13
I0
ssS'WALTERS GARETH W'
p52
(dp53
g3
I33785
sg4
I00
sg5
I0
sg6
F0.0
sg7
I0
sg8
I1030329
sg9
I0
sg10
I0
sg11
I87410
sg12
F0.0
sg13
I1030329
ssS'WALLS JR ROBERT H'
p54
(dp55
g3
I50936
sg4
I00
sg5
I540751
sg6
F0.02533532041728763
sg7
I850000
sg8
I5898997
sg9
I1552453
sg10
I357091
sg11
I1798780
sg12
F0.0
sg13
I4346544
ssS'KITCHEN LOUISE'
p56
(dp57
g3
I5774
sg4
I00
sg5
I0
sg6
F0.030222757375075255
sg7
I3100000
sg8
I547143
sg9
I466101
sg10
I271442
sg11
I3471141
sg12
F0.11226851851851852
sg13
I81042
ssS'CHAN RONNIE'
p58
(dp59
g3
I0
sg4
I00
sg5
I0
sg6
F0.0
sg7
I0
sg8
I0
sg9
I32460
sg10
I0
sg11
I0
sg12
F0.0
sg13
I0
ssS'BELFER ROBERT'
p60
(dp61
g3
I0
sg4
I00
sg5
I0
sg6
F0.0
sg7
I0
sg8
I-44093
sg9
I0
sg10
I0
sg11
I102500
sg12
F0.0
sg13
I3285
ssS'SHANKMAN JEFFREY A'
p62
(dp63
g3
I178979
sg4
I00
sg5
I554422
sg6
F0.029183483390251473
sg7
I2000000
sg8
I2072035
sg9
I630137
sg10
I304110
sg11
I3038702
sg12
F0.030958597538232
sg13
I1441898
ssS'WODRASKA JOHN'
p64
(dp65
g3
I0
sg4
I00
sg5
I0
sg6
F0.0
sg7
I0
sg8
I0
sg9
I0
sg10
I0
sg11
I189583
sg12
F0.0
sg13
I0
ssS'BERGSIEKER RICHARD P'
p66
(dp67
g3
I59175
sg4
I00
sg5
I180250
sg6
F0.010443864229765013
sg7
I250000
sg8
I659249
sg9
I659249
sg10
I187922
sg11
I618850
sg12
F0.0
sg13
I0
ssS'URQUHART JOHN A'
p68
(dp69
g3
I228656
sg4
I00
sg5
I0
sg6
F0.0
sg7
I0
sg8
I0
sg9
I0
sg10
I0
sg11
I228656
sg12
F0.0
sg13
I0
ssS'BIBI PHILIPPE A'
p70
(dp71
g3
I38559
sg4
I00
sg5
I369721
sg6
F0.01431238332296204
sg7
I1000000
sg8
I1843816
sg9
I378082
sg10
I213625
sg11
I2047593
sg12
F0.2
sg13
I1465734
ssS'RIEKER PAULA H'
p72
(dp73
g3
I33271
sg4
I01
sg5
I0
sg6
F0.02635542168674699
sg7
I700000
sg8
I1918887
sg9
I283649
sg10
I249201
sg11
I1099100
sg12
F0.5853658536585366
sg13
I1635238
ssS'WHALEY DAVID A'
p74
(dp75
g3
I0
sg4
I00
sg5
I0
sg6
F0.0
sg7
I0
sg8
I98718
sg9
I0
sg10
I0
sg11
I0
sg12
F0.0
sg13
I98718
ssS'BECK SALLY W'
p76
(dp77
g3
I37172
sg4
I00
sg5
I0
sg6
F0.01968557758031442
sg7
I700000
sg8
I126027
sg9
I126027
sg10
I231330
sg11
I969068
sg12
F0.08887865530739121
sg13
I0
ssS'HAUG DAVID L'
p78
(dp79
g3
I475
sg4
I00
sg5
I0
sg6
F0.006980802792321117
sg7
I0
sg8
I2217299
sg9
I2217299
sg10
I0
sg11
I475
sg12
F0.3684210526315789
sg13
I0
ssS'ECHOLS JOHN B'
p80
(dp81
g3
I21530
sg4
I00
sg5
I2234774
sg6
F0.0
sg7
I200000
sg8
I1008941
sg9
I407503
sg10
I182245
sg11
I2692324
sg12
F0.0
sg13
I601438
ssS'MENDELSOHN JOHN'
p82
(dp83
g3
I148
sg4
I00
sg5
I0
sg6
F0.0
sg7
I0
sg8
I0
sg9
I0
sg10
I0
sg11
I148
sg12
F0.0
sg13
I0
ssS'HICKERSON GARY J'
p84
(dp85
g3
I98849
sg4
I00
sg5
I69223
sg6
F0.030303030303030304
sg7
I1700000
sg8
I441096
sg9
I441096
sg10
I211788
sg11
I2081796
sg12
F0.037037037037037035
sg13
I0
ssS'CLINE KENNETH W'
p86
(dp87
g3
I0
sg4
I00
sg5
I0
sg6
F0.0
sg7
I0
sg8
I189518
sg9
I662086
sg10
I0
sg11
I0
sg12
F0.0
sg13
I0
ssS'LEWIS RICHARD'
p88
(dp89
g3
I0
sg4
I00
sg5
I0
sg6
F0.01050420168067227
sg7
I0
sg8
I850477
sg9
I0
sg10
I0
sg11
I0
sg12
F0.0
sg13
I850477
ssS'HAYES ROBERT E'
p90
(dp91
g3
I0
sg4
I00
sg5
I0
sg6
F0.031746031746031744
sg7
I0
sg8
I151418
sg9
I151418
sg10
I0
sg11
I7961
sg12
F0.0
sg13
I0
ssS'MCCARTY DANNY J'
p92
(dp93
g3
I0
sg4
I00
sg5
I0
sg6
F0.017445917655268667
sg7
I0
sg8
I758931
sg9
I94556
sg10
I0
sg11
I0
sg12
F0.009302325581395349
sg13
I664375
ssS'KOPPER MICHAEL J'
p94
(dp95
g3
I118134
sg4
I01
sg5
I602671
sg6
F0.0
sg7
I800000
sg8
I985032
sg9
I985032
sg10
I224305
sg11
I2652612
sg12
F0.0
sg13
I0
ssS'LEFF DANIEL P'
p96
(dp97
g3
I0
sg4
I00
sg5
I1387399
sg6
F0.02374202693125443
sg7
I1000000
sg8
I360528
sg9
I360528
sg10
I273746
sg11
I2664228
sg12
F0.2222222222222222
sg13
I0
ssS'LAVORATO JOHN J'
p98
(dp99
g3
I49537
sg4
I00
sg5
I2035380
sg6
F0.07273729163796666
sg7
I8000000
sg8
I5167144
sg9
I1008149
sg10
I339288
sg11
I10425757
sg12
F0.15899419729206962
sg13
I4158995
ssS'BERBERIAN DAVID'
p100
(dp101
g3
I11892
sg4
I00
sg5
I0
sg6
F0.0
sg7
I0
sg8
I2493616
sg9
I869220
sg10
I216582
sg11
I228474
sg12
F0.0
sg13
I1624396
ssS'DETMERING TIMOTHY J'
p102
(dp103
g3
I52255
sg4
I00
sg5
I415657
sg6
F0.0
sg7
I425000
sg8
I2027865
sg9
I315068
sg10
I210500
sg11
I1204583
sg12
F0.0
sg13
I2027865
ssS'WAKEHAM JOHN'
p104
(dp105
g3
I103773
sg4
I00
sg5
I0
sg6
F0.0
sg7
I0
sg8
I0
sg9
I0
sg10
I0
sg11
I213071
sg12
F0.0
sg13
I0
ssS'POWERS WILLIAM'
p106
(dp107
g3
I0
sg4
I00
sg5
I0
sg6
F0.0
sg7
I0
sg8
I0
sg9
I0
sg10
I0
sg11
I0
sg12
F0.0
sg13
I0
ssS'GOLD JOSEPH'
p108
(dp109
g3
I0
sg4
I00
sg5
I304805
sg6
F0.0
sg7
I750000
sg8
I877611
sg9
I441096
sg10
I272880
sg11
I2146973
sg12
F0.0
sg13
I436515
ssS'BANNANTINE JAMES M'
p110
(dp111
g3
I56301
sg4
I00
sg5
I0
sg6
F0.06890459363957598
sg7
I0
sg8
I5243487
sg9
I1757552
sg10
I477
sg11
I916197
sg12
F0.0
sg13
I4046157
ssS'DUNCAN JOHN H'
p112
(dp113
g3
I0
sg4
I00
sg5
I0
sg6
F0.0
sg7
I0
sg8
I371750
sg9
I0
sg10
I0
sg11
I77492
sg12
F0.0
sg13
I371750
ssS'SHAPIRO RICHARD S'
p114
(dp115
g3
I137767
sg4
I00
sg5
I0
sg6
F0.0048848108786058485
sg7
I650000
sg8
I987001
sg9
I379164
sg10
I269076
sg11
I1057548
sg12
F0.053497942386831275
sg13
I607837
ssS'SHERRIFF JOHN R'
p116
(dp117
g3
I0
sg4
I00
sg5
I554422
sg6
F0.008785691873235017
sg7
I1500000
sg8
I3128982
sg9
I1293424
sg10
I428780
sg11
I4335388
sg12
F0.25
sg13
I1835558
ssS'SHELBY REX'
p118
(dp119
g3
I22884
sg4
I01
sg5
I0
sg6
F0.057777777777777775
sg7
I200000
sg8
I2493616
sg9
I869220
sg10
I211844
sg11
I2003885
sg12
F0.358974358974359
sg13
I1624396
ssS'LEMAISTRE CHARLES'
p120
(dp121
g3
I0
sg4
I00
sg5
I0
sg6
F0.0
sg7
I0
sg8
I412878
sg9
I0
sg10
I0
sg11
I87492
sg12
F0.0
sg13
I412878
ssS'DEFFNER JOSEPH M'
p122
(dp123
g3
I41626
sg4
I00
sg5
I335349
sg6
F0.16106442577030813
sg7
I600000
sg8
I159211
sg9
I141833
sg10
I206121
sg11
I1208649
sg12
F0.05405405405405406
sg13
I17378
ssS'KISHKILL JOSEPH G'
p124
(dp125
g3
I116335
sg4
I00
sg5
I0
sg6
F0.0
sg7
I0
sg8
I1034346
sg9
I1034346
sg10
I174246
sg11
I704896
sg12
F0.0
sg13
I0
ssS'WHALLEY LAWRENCE G'
p126
(dp127
g3
I57838
sg4
I00
sg5
I808346
sg6
F0.03090214321315833
sg7
I3000000
sg8
I6079137
sg9
I2796177
sg10
I510364
sg11
I4677574
sg12
F0.04316546762589928
sg13
I3282960
ssS'MCCONNELL MICHAEL S'
p128
(dp129
g3
I81364
sg4
I00
sg5
I554422
sg6
F0.02763592670471613
sg7
I1100000
sg8
I3101279
sg9
I1478269
sg10
I365038
sg11
I2101364
sg12
F0.07075127644055434
sg13
I1623010
ssS'PIRO JIM'
p130
(dp131
g3
I0
sg4
I00
sg5
I0
sg6
F0.0
sg7
I0
sg8
I47304
sg9
I47304
sg10
I0
sg11
I0
sg12
F0.0625
sg13
I0
ssS'DELAINEY DAVID W'
p132
(dp133
g3
I86174
sg4
I01
sg5
I1294981
sg6
F0.02133850630455868
sg7
I3000000
sg8
I3614261
sg9
I1323148
sg10
I365163
sg11
I4747979
sg12
F0.198435972629521
sg13
I2291113
ssS'SULLIVAN-SHAKLOVITZ COLLEEN'
p134
(dp135
g3
I0
sg4
I00
sg5
I554422
sg6
F0.0
sg7
I100000
sg8
I1362375
sg9
I0
sg10
I162779
sg11
I999356
sg12
F0.0
sg13
I1362375
ssS'WROBEL BRUCE'
p136
(dp137
g3
I0
sg4
I00
sg5
I0
sg6
F0.0
sg7
I0
sg8
I139130
sg9
I0
sg10
I0
sg11
I0
sg12
F0.0
sg13
I139130
ssS'LINDHOLM TOD A'
p138
(dp139
g3
I57727
sg4
I00
sg5
I175000
sg6
F0.0
sg7
I200000
sg8
I3064208
sg9
I514847
sg10
I236457
sg11
I875889
sg12
F0.0
sg13
I2549361
ssS'MEYER JEROME J'
p140
(dp141
g3
I2151
sg4
I00
sg5
I0
sg6
F0.0
sg7
I0
sg8
I0
sg9
I0
sg10
I0
sg11
I2151
sg12
F0.0
sg13
I0
ssS'LAY KENNETH L'
p142
(dp143
g3
I99832
sg4
I01
sg5
I3600000
sg6
F0.028785396676807865
sg7
I7000000
sg8
I49110078
sg9
I14761694
sg10
I1072321
sg11
I103559793
sg12
F0.4444444444444444
sg13
I34348384
ssS'BUTTS ROBERT H'
p144
(dp145
g3
I9410
sg4
I00
sg5
I175000
sg6
F0.0
sg7
I750000
sg8
I417619
sg9
I417619
sg10
I261516
sg11
I1271582
sg12
F0.0
sg13
I0
ssS'OLSON CINDY K'
p146
(dp147
g3
I63791
sg4
I00
sg5
I100000
sg6
F0.016891891891891893
sg7
I750000
sg8
I2606763
sg9
I969729
sg10
I329078
sg11
I1321557
sg12
F0.28846153846153844
sg13
I1637034
ssS'MCDONALD REBECCA'
p148
(dp149
g3
I0
sg4
I00
sg5
I0
sg6
F0.06040268456375839
sg7
I0
sg8
I1691366
sg9
I934065
sg10
I0
sg11
I0
sg12
F0.07692307692307693
sg13
I757301
ssS'CUMBERLAND MICHAEL S'
p150
(dp151
g3
I22344
sg4
I00
sg5
I275000
sg6
F0.0
sg7
I325000
sg8
I207940
sg9
I207940
sg10
I184899
sg11
I807956
sg12
F0.0
sg13
I0
ssS'GAHN ROBERT S'
p152
(dp153
g3
I50080
sg4
I00
sg5
I0
sg6
F0.0
sg7
I509870
sg8
I318607
sg9
I235370
sg10
I192008
sg11
I900585
sg12
F0.0
sg13
I83237
ssS'MCCLELLAN GEORGE'
p154
(dp155
g3
I228763
sg4
I00
sg5
I0
sg6
F0.02981651376146789
sg7
I900000
sg8
I947861
sg9
I441096
sg10
I263413
sg11
I1318763
sg12
F0.0
sg13
I506765
ssS'HERMANN ROBERT J'
p156
(dp157
g3
I48357
sg4
I00
sg5
I150000
sg6
F0.0
sg7
I700000
sg8
I668132
sg9
I480632
sg10
I262663
sg11
I1297461
sg12
F0.0
sg13
I187500
ssS'SCRIMSHAW MATTHEW'
p158
(dp159
g3
I0
sg4
I00
sg5
I0
sg6
F0.0
sg7
I0
sg8
I759557
sg9
I0
sg10
I0
sg11
I0
sg12
F0.0
sg13
I759557
ssS'GATHMANN WILLIAM D'
p160
(dp161
g3
I0
sg4
I00
sg5
I0
sg6
F0.0
sg7
I0
sg8
I1945360
sg9
I264013
sg10
I0
sg11
I0
sg12
F0.0
sg13
I1753766
ssS'HAEDICKE MARK E'
p162
(dp163
g3
I76169
sg4
I00
sg5
I983346
sg6
F0.04489897730107259
sg7
I1150000
sg8
I803094
sg9
I524169
sg10
I374125
sg11
I3859065
sg12
F0.03142709943328181
sg13
I608750
ssS'BOWEN JR RAYMOND M'
p164
(dp165
g3
I65907
sg4
I01
sg5
I974293
sg6
F0.07534983853606028
sg7
I1350000
sg8
I252055
sg9
I252055
sg10
I278601
sg11
I2669589
sg12
F0.5555555555555556
sg13
I0
ssS'GILLIS JOHN'
p166
(dp167
g3
I0
sg4
I00
sg5
I0
sg6
F0.0
sg7
I0
sg8
I85641
sg9
I75838
sg10
I0
sg11
I0
sg12
F0.0
sg13
I9803
ssS'FITZGERALD JAY L'
p168
(dp169
g3
I23870
sg4
I00
sg5
I556416
sg6
F0.0010683760683760685
sg7
I350000
sg8
I1621236
sg9
I956775
sg10
I199157
sg11
I1414857
sg12
F0.5
sg13
I664461
ssS'MORAN MICHAEL P'
p170
(dp171
g3
I0
sg4
I00
sg5
I0
sg6
F0.0
sg7
I0
sg8
I221141
sg9
I161602
sg10
I0
sg11
I0
sg12
F0.0
sg13
I59539
ssS'REDMOND BRIAN L'
p172
(dp173
g3
I14689
sg4
I00
sg5
I0
sg6
F0.12208258527827648
sg7
I0
sg8
I7890324
sg9
I381285
sg10
I96840
sg11
I111529
sg12
F0.22171945701357465
sg13
I7509039
ssS'BAZELIDES PHILIP J'
p174
(dp175
g3
I0
sg4
I00
sg5
I93750
sg6
F0.0
sg7
I0
sg8
I1599641
sg9
I0
sg10
I80818
sg11
I860136
sg12
F0.0
sg13
I1599641
ssS'BELDEN TIMOTHY N'
p176
(dp177
g3
I17355
sg4
I01
sg5
I0
sg6
F0.028532098610937303
sg7
I5249999
sg8
I1110705
sg9
I157569
sg10
I213999
sg11
I5501630
sg12
F0.2231404958677686
sg13
I953136
ssS'DURAN WILLIAM D'
p178
(dp179
g3
I25785
sg4
I00
sg5
I1105218
sg6
F0.1172566371681416
sg7
I750000
sg8
I1640910
sg9
I189041
sg10
I210692
sg11
I2093263
sg12
F0.25
sg13
I1451869
ssS'THORN TERENCE H'
p180
(dp181
g3
I46145
sg4
I00
sg5
I200000
sg6
F0.0
sg7
I0
sg8
I4817796
sg9
I365320
sg10
I222093
sg11
I911453
sg12
F0.0
sg13
I4452476
ssS'FASTOW ANDREW S'
p182
(dp183
g3
I55921
sg4
I01
sg5
I1736055
sg6
F0.0
sg7
I1300000
sg8
I1794412
sg9
I1794412
sg10
I440698
sg11
I2424083
sg12
F0.0
sg13
I0
ssS'FOY JOE'
p184
(dp185
g3
I0
sg4
I00
sg5
I0
sg6
F0.0
sg7
I0
sg8
I343434
sg9
I0
sg10
I0
sg11
I181755
sg12
F0.0
sg13
I343434
ssS'CALGER CHRISTOPHER F'
p186
(dp187
g3
I35818
sg4
I01
sg5
I375304
sg6
F0.07659738260200154
sg7
I1250000
sg8
I126027
sg9
I126027
sg10
I240189
sg11
I1639297
sg12
F0.1736111111111111
sg13
I0
ssS'RICE KENNETH D'
p188
(dp189
g3
I46950
sg4
I01
sg5
I1617011
sg6
F0.04640883977900553
sg7
I1750000
sg8
I22542539
sg9
I2748364
sg10
I420636
sg11
I505050
sg12
F0.2222222222222222
sg13
I19794175
ssS'KAMINSKI WINCENTY J'
p190
(dp191
g3
I83585
sg4
I00
sg5
I323466
sg6
F0.008899500759713479
sg7
I400000
sg8
I976037
sg9
I126027
sg10
I275101
sg11
I1086821
sg12
F0.011901447661469933
sg13
I850010
ssS'LOCKHART EUGENE E'
p192
(dp193
g3
I0
sg4
I00
sg5
I0
sg6
F0.0
sg7
I0
sg8
I0
sg9
I0
sg10
I0
sg11
I0
sg12
F0.0
sg13
I0
ssS'COX DAVID'
p194
(dp195
g3
I27861
sg4
I00
sg5
I0
sg6
F0.0
sg7
I800000
sg8
I495633
sg9
I378082
sg10
I314288
sg11
I1101393
sg12
F0.12121212121212122
sg13
I117551
ssS'OVERDYKE JR JERE C'
p196
(dp197
g3
I18834
sg4
I00
sg5
I135836
sg6
F0.0
sg7
I0
sg8
I7307594
sg9
I2041016
sg10
I94941
sg11
I249787
sg12
F0.0
sg13
I5266578
ssS'PEREIRA PAULO V. FERRAZ'
p198
(dp199
g3
I27942
sg4
I00
sg5
I0
sg6
F0.0
sg7
I0
sg8
I0
sg9
I0
sg10
I0
sg11
I27942
sg12
F0.0
sg13
I0
ssS'STABLER FRANK'
p200
(dp201
g3
I16514
sg4
I00
sg5
I0
sg6
F0.0
sg7
I500000
sg8
I511734
sg9
I511734
sg10
I239502
sg11
I1112087
sg12
F0.0
sg13
I0
ssS'SKILLING JEFFREY K'
p202
(dp203
g3
I29336
sg4
I01
sg5
I1920000
sg6
F0.0242624758753791
sg7
I5600000
sg8
I26093672
sg9
I6843672
sg10
I1111258
sg11
I8682716
sg12
F0.2777777777777778
sg13
I19250000
ssS'BLAKE JR. NORMAN P'
p204
(dp205
g3
I1279
sg4
I00
sg5
I0
sg6
F0.0
sg7
I0
sg8
I0
sg9
I0
sg10
I0
sg11
I1279
sg12
F0.0
sg13
I0
ssS'SHERRICK JEFFREY B'
p206
(dp207
g3
I0
sg4
I00
sg5
I0
sg6
F0.0636215334420881
sg7
I0
sg8
I1832468
sg9
I405999
sg10
I0
sg11
I0
sg12
F0.72
sg13
I1426469
ssS'PRENTICE JAMES'
p208
(dp209
g3
I0
sg4
I00
sg5
I0
sg6
F0.0
sg7
I0
sg8
I1095040
sg9
I208809
sg10
I0
sg11
I564348
sg12
F0.0
sg13
I886231
ssS'GRAY RODNEY'
p210
(dp211
g3
I0
sg4
I00
sg5
I365625
sg6
F0.0
sg7
I0
sg8
I0
sg9
I0
sg10
I6615
sg11
I1146658
sg12
F0.0
sg13
I0
ssS'PICKERING MARK R'
p212
(dp213
g3
I31653
sg4
I00
sg5
I0
sg6
F0.0077951002227171495
sg7
I300000
sg8
I28798
sg9
I0
sg10
I655037
sg11
I1386690
sg12
F0.0
sg13
I28798
ssS'THE TRAVEL AGENCY IN THE PARK'
p214
(dp215
g3
I0
sg4
I00
sg5
I0
sg6
F0.0
sg7
I0
sg8
I0
sg9
I0
sg10
I0
sg11
I362096
sg12
F0.0
sg13
I0
ssS'NOLES JAMES L'
p216
(dp217
g3
I0
sg4
I00
sg5
I0
sg6
F0.0
sg7
I0
sg8
I368705
sg9
I463261
sg10
I0
sg11
I774401
sg12
F0.0
sg13
I0
ssS'KEAN STEVEN J'
p218
(dp219
g3
I41953
sg4
I00
sg5
I300000
sg6
F0.010976948408342482
sg7
I1000000
sg8
I6153642
sg9
I4131594
sg10
I404338
sg11
I1747522
sg12
F0.05725699067909454
sg13
I2022048
ssS'FOWLER PEGGY'
p220
(dp221
g3
I0
sg4
I00
sg5
I0
sg6
F0.0
sg7
I0
sg8
I1884748
sg9
I560170
sg10
I0
sg11
I0
sg12
F0.0
sg13
I1324578
ssS'WASAFF GEORGE'
p222
(dp223
g3
I0
sg4
I00
sg5
I200000
sg6
F0.055
sg7
I325000
sg8
I2056427
sg9
I388167
sg10
I259996
sg11
I1034395
sg12
F0.23333333333333334
sg13
I1668260
ssS'WHITE JR THOMAS E'
p224
(dp225
g3
I81353
sg4
I00
sg5
I0
sg6
F0.0
sg7
I450000
sg8
I15144123
sg9
I13847074
sg10
I317543
sg11
I1934359
sg12
F0.0
sg13
I1297049
ssS'CHRISTODOULOU DIOMEDES'
p226
(dp227
g3
I0
sg4
I00
sg5
I0
sg6
F0.0
sg7
I0
sg8
I6077885
sg9
I950730
sg10
I0
sg11
I0
sg12
F0.0
sg13
I5127155
ssS'ALLEN PHILLIP K'
p228
(dp229
g3
I13868
sg4
I00
sg5
I304805
sg6
F0.016195727084769126
sg7
I4175000
sg8
I1729541
sg9
I126027
sg10
I201955
sg11
I4484442
sg12
F0.029612756264236904
sg13
I1729541
ssS'SHARP VICTORIA T'
p230
(dp231
g3
I116337
sg4
I00
sg5
I422158
sg6
F0.007653061224489796
sg7
I600000
sg8
I494136
sg9
I213063
sg10
I248146
sg11
I1576511
sg12
F0.04411764705882353
sg13
I281073
ssS'JAEDICKE ROBERT'
p232
(dp233
g3
I0
sg4
I00
sg5
I0
sg6
F0.0
sg7
I0
sg8
I431750
sg9
I44093
sg10
I0
sg11
I83750
sg12
F0.0
sg13
I431750
ssS'WINOKUR JR. HERBERT S'
p234
(dp235
g3
I1413
sg4
I00
sg5
I0
sg6
F0.0
sg7
I0
sg8
I0
sg9
I0
sg10
I0
sg11
I84992
sg12
F0.0
sg13
I0
ssS'BROWN MICHAEL'
p236
(dp237
g3
I49288
sg4
I00
sg5
I0
sg6
F0.008748317631224764
sg7
I0
sg8
I0
sg9
I0
sg10
I0
sg11
I49288
sg12
F0.024390243902439025
sg13
I0
ssS'BADUM JAMES P'
p238
(dp239
g3
I3486
sg4
I00
sg5
I0
sg6
F0.0
sg7
I0
sg8
I257817
sg9
I0
sg10
I0
sg11
I182466
sg12
F0.0
sg13
I257817
ssS'HUGHES JAMES A'
p240
(dp241
g3
I0
sg4
I00
sg5
I0
sg6
F0.048678720445062586
sg7
I0
sg8
I1118394
sg9
I363428
sg10
I0
sg11
I0
sg12
F0.14705882352941177
sg13
I754966
ssS'REYNOLDS LAWRENCE'
p242
(dp243
g3
I8409
sg4
I00
sg5
I156250
sg6
F0.0
sg7
I100000
sg8
I4221891
sg9
I201483
sg10
I76399
sg11
I394475
sg12
F0.0
sg13
I4160672
ssS'DIMICHELE RICHARD G'
p244
(dp245
g3
I35812
sg4
I00
sg5
I694862
sg6
F0.0
sg7
I1000000
sg8
I8317782
sg9
I126027
sg10
I262788
sg11
I2368151
sg12
F0.0
sg13
I8191755
ssS'BHATNAGAR SANJAY'
p246
(dp247
g3
I0
sg4
I00
sg5
I0
sg6
F0.0
sg7
I0
sS'total_stock_value'
p248
I0
sg9
I-2604490
sg10
I0
sg11
I15456290
sg12
F0.034482758620689655
sg13
I2604490
ssS'CARTER REBECCA C'
p249
(dp250
g3
I0
sg4
I00
sg5
I75000
sg6
F0.09294871794871795
sg7
I300000
sg8
I0
sg9
I307301
sg10
I261809
sg11
I477557
sg12
F0.4666666666666667
sg13
I0
ssS'BUCHANAN HAROLD G'
p251
(dp252
g3
I600
sg4
I00
sg5
I304805
sg6
F0.0
sg7
I500000
sg8
I1014505
sg9
I189041
sg10
I248017
sg11
I1054637
sg12
F0.0
sg13
I825464
ssS'YEAP SOON'
p253
(dp254
g3
I55097
sg4
I00
sg5
I0
sg6
F0.0
sg7
I0
sg8
I192758
sg9
I0
sg10
I0
sg11
I55097
sg12
F0.0
sg13
I192758
ssS'MURRAY JULIA H'
p255
(dp256
g3
I57580
sg4
I00
sg5
I125000
sg6
F0.005018248175182482
sg7
I400000
sg8
I597461
sg9
I196983
sg10
I229284
sg11
I812194
sg12
F0.044444444444444446
sg13
I400478
ssS'GARLAND C KEVIN'
p257
(dp258
g3
I48405
sg4
I00
sg5
I375304
sg6
F0.04784688995215311
sg7
I850000
sg8
I896153
sg9
I259907
sg10
I231946
sg11
I1566469
sg12
F0.6136363636363636
sg13
I636246
ssS'DODSON KEITH'
p259
(dp260
g3
I28164
sg4
I00
sg5
I0
sg6
F0.056818181818181816
sg7
I70000
sg8
I0
sg9
I0
sg10
I221003
sg11
I319941
sg12
F0.21428571428571427
sg13
I0
ssS'YEAGER F SCOTT'
p261
(dp262
g3
I53947
sg4
I01
sg5
I0
sg6
F0.0
sg7
I0
sg8
I11884758
sg9
I3576206
sg10
I158403
sg11
I360300
sg12
F0.0
sg13
I8308552
ssS'HIRKO JOSEPH'
p263
(dp264
g3
I77978
sg4
I01
sg5
I0
sg6
F0.0
sg7
I0
sg8
I30766064
sg9
I0
sg10
I0
sg11
I91093
sg12
F0.0
sg13
I30766064
ssS'DIETRICH JANET R'
p265
(dp266
g3
I3475
sg4
I00
sg5
I556416
sg6
F0.11858475894245724
sg7
I600000
sg8
I1865087
sg9
I315068
sg10
I250100
sg11
I1410464
sg12
F0.2222222222222222
sg13
I1550019
ssS'DERRICK JR. JAMES V'
p267
(dp268
g3
I51124
sg4
I00
sg5
I484000
sg6
F0.029344337459880788
sg7
I800000
sg8
I8831913
sg9
I1787380
sg10
I492375
sg11
I550981
sg12
F0.022002200220022004
sg13
I8831913
ssS'FREVERT MARK A'
p269
(dp270
g3
I86987
sg4
I00
sg5
I1617011
sg6
F0.07389312977099237
sg7
I2000000
sg8
I14622185
sg9
I4188667
sg10
I1060932
sg11
I17252530
sg12
F0.2857142857142857
sg13
I10433518
ssS'PAI LOU L'
p271
(dp272
g3
I32047
sg4
I00
sg5
I0
sg6
F0.0
sg7
I1000000
sg8
I23817930
sg9
I8453763
sg10
I261879
sg11
I3123383
sg12
F0.0
sg13
I15364167
ssS'BAY FRANKLIN R'
p273
(dp274
g3
I129142
sg4
I00
sg5
I0
sg6
F0.0
sg7
I400000
sg8
I63014
sg9
I145796
sg10
I239671
sg11
I827696
sg12
F0.0
sg13
I0
ssS'HAYSLETT RODERICK J'
p275
(dp276
g3
I0
sg4
I00
sg5
I0
sg6
F0.01321253303133258
sg7
I0
sg8
I346663
sg9
I346663
sg10
I0
sg11
I0
sg12
F0.03581526861451461
sg13
I0
ssS'FUGH JOHN L'
p277
(dp278
g3
I0
sg4
I00
sg5
I0
sg6
F0.0
sg7
I0
sg8
I176378
sg9
I0
sg10
I0
sg11
I50591
sg12
F0.0
sg13
I176378
ssS'FALLON JAMES B'
p279
(dp280
g3
I95924
sg4
I00
sg5
I374347
sg6
F0.023931623931623933
sg7
I2500000
sg8
I2332399
sg9
I1392142
sg10
I304588
sg11
I3676340
sg12
F0.49333333333333335
sg13
I940257
ssS'KOENIG MARK E'
p281
(dp282
g3
I127017
sg4
I01
sg5
I300000
sg6
F0.02232518955349621
sg7
I700000
sg8
I1920055
sg9
I1248318
sg10
I309946
sg11
I1587421
sg12
F0.2459016393442623
sg13
I671737
ssS'SAVAGE FRANK'
p283
(dp284
g3
I0
sg4
I00
sg5
I0
sg6
F0.0
sg7
I0
sg8
I0
sg9
I0
sg10
I0
sg11
I3750
sg12
F0.0
sg13
I0
ssS'IZZO LAWRENCE L'
p285
(dp286
g3
I28093
sg4
I00
sg5
I312500
sg6
F0.056451612903225805
sg7
I0
sg8
I5819980
sg9
I3654808
sg10
I85274
sg11
I1979596
sg12
F0.2631578947368421
sg13
I2165172
ssS'TILNEY ELIZABETH A'
p287
(dp288
g3
I0
sg4
I00
sg5
I275000
sg6
F0.021739130434782608
sg7
I300000
sg8
I1168042
sg9
I576792
sg10
I247338
sg11
I399393
sg12
F0.5789473684210527
sg13
I591250
ssS'MARTIN AMANDA K'
p289
(dp290
g3
I8211
sg4
I00
sg5
I5145434
sg6
F0.005256241787122208
sg7
I0
sg8
I2070306
sg9
I0
sg10
I349487
sg11
I8407016
sg12
F0.0
sg13
I2070306
ssS'BUY RICHARD B'
p291
(dp292
g3
I0
sg4
I00
sg5
I769862
sg6
F0.04428044280442804
sg7
I900000
sg8
I3444470
sg9
I901657
sg10
I330546
sg11
I2355702
sg12
F0.06742640075973409
sg13
I2542813
ssS'GRAMM WENDY L'
p293
(dp294
g3
I0
sg4
I00
sg5
I0
sg6
F0.0
sg7
I0
sg8
I0
sg9
I0
sg10
I0
sg11
I119292
sg12
F0.0
sg13
I0
ssS'CAUSEY RICHARD A'
p295
(dp296
g3
I30674
sg4
I01
sg5
I350000
sg6
F0.0306553911205074
sg7
I1000000
sg8
I2502063
sg9
I2502063
sg10
I415189
sg11
I1868758
sg12
F0.24489795918367346
sg13
I0
ssS'TAYLOR MITCHELL S'
p297
(dp298
g3
I0
sg4
I00
sg5
I0
sg6
F0.0
sg7
I600000
sg8
I3745048
sg9
I563798
sg10
I265214
sg11
I1092663
sg12
F0.0
sg13
I3181250
ssS'DONAHUE JR JEFFREY M'
p299
(dp300
g3
I96268
sg4
I00
sg5
I0
sg6
F0.21734104046242775
sg7
I800000
sg8
I1080988
sg9
I315068
sg10
I278601
sg11
I875760
sg12
F0.5
sg13
I765920
ssS'GLISAN JR BEN F'
p301
(dp302
g3
I125978
sg4
I01
sg5
I71023
sg6
F0.05956471935853379
sg7
I600000
sg8
I778546
sg9
I393818
sg10
I274975
sg11
I1272284
sg12
F0.375
sg13
I384728
ss.