(lp0
S'poi'
p1
aS'salary'
p2
aS'bonus'
p3
aS'total_stock_value'
p4
aS'fraction_to_poi'
p5
aS'fraction_from_poi'
p6
aS'expenses'
p7
aS'long_term_incentive'
p8
aS'total_payments'
p9
aS'restricted_stock'
p10
aS'exercised_stock_options'
p11
a.